target datalayout = "e-m:e-p270:32:32-p271:32:32-p272:64:64-i64:64-i128:128-f80:128-n8:16:32:64-S128"
target triple = "x86_64-pc-linux-gnu"

; Function Attrs: nounwind uwtable
define i32 @pmix_bfrops_base_copy_string(ptr noundef %0, ptr noundef %1, i16 noundef zeroext %2) #0 {
  %4 = alloca ptr, align 8
  %5 = alloca ptr, align 8
  %6 = alloca i16, align 2
  store ptr %0, ptr %4, align 8, !tbaa !45
  store ptr %1, ptr %5, align 8, !tbaa !33
  store i16 %2, ptr %6, align 2, !tbaa !9
  %7 = load ptr, ptr %5, align 8, !tbaa !33
  %8 = icmp eq ptr null, %7
  br i1 %8, label %9, label %11

9:                                                ; preds = %3
  %10 = load ptr, ptr %4, align 8, !tbaa !45
  store ptr null, ptr %10, align 8, !tbaa !33
  br label %15

11:                                               ; preds = %3
  %12 = load ptr, ptr %5, align 8, !tbaa !33
  %13 = call noalias ptr @strdup(ptr noundef %12) #11
  %14 = load ptr, ptr %4, align 8, !tbaa !45
  store ptr %13, ptr %14, align 8, !tbaa !33
  br label %15

15:                                               ; preds = %11, %9
  ret i32 0
}