; Function Attrs: mustprogress nofree nounwind willreturn memory(argmem: readwrite, inaccessiblemem: readwrite) uwtable
define noundef i32 @pmix_bfrops_base_copy_string(ptr noundef writeonly captures(none) initializes((0, 8)) %0, ptr noundef readonly captures(address_is_null) %1, i16 noundef zeroext %2) local_unnamed_addr #7 {
  %4 = icmp eq ptr %1, null
  br i1 %4, label %7, label %5

5:                                                ; preds = %3
  %6 = tail call noalias ptr @strdup(ptr noundef nonnull %1) #23
  br label %7

7:                                                ; preds = %3, %5
  %storemerge = phi ptr [ %6, %5 ], [ null, %3 ]
  store ptr %storemerge, ptr %0, align 8, !tbaa !40
  ret i32 0
}